target datalayout = "e-m:e-p270:32:32-p271:32:32-p272:64:64-i64:64-i128:128-f80:128-n8:16:32:64-S128"
target triple = "x86_64-pc-linux-gnu"

@.str = private unnamed_addr constant [11 x i8] c"map access\00", align 1
@H5P_CLS_LINK_ACCESS_g = external global ptr, align 8
@H5P_CLS_MAP_ACCESS_g = external global ptr, align 8
@H5P_CLS_MAP_ACCESS_ID_g = external global i64, align 8
@H5P_LST_MAP_ACCESS_ID_g = external global i64, align 8
@H5P_CLS_MACC = constant [1 x { ptr, i32, [4 x i8], ptr, ptr, ptr, ptr, ptr, ptr, ptr, ptr, ptr, ptr, ptr }] [{ ptr, i32, [4 x i8], ptr, ptr, ptr, ptr, ptr, ptr, ptr, ptr, ptr, ptr, ptr } { ptr @.str, i32 21, [4 x i8] zeroinitializer, ptr @H5P_CLS_LINK_ACCESS_g, ptr @H5P_CLS_MAP_ACCESS_g, ptr @H5P_CLS_MAP_ACCESS_ID_g, ptr @H5P_LST_MAP_ACCESS_ID_g, ptr @H5P__macc_reg_prop, ptr null, ptr null, ptr null, ptr null, ptr null, ptr null }], align 16
@H5P_init_g = external global i8, align 1
@H5_libterm_g = external global i8, align 1
@.str.1 = private unnamed_addr constant [18 x i8] c"key_prefetch_size\00", align 1
@.str.2 = private unnamed_addr constant [101 x i8] c"generated/home/dtcxzyw/WorkSpace/Projects/compilers/llvm-opt-benchmark/bench/hdf5/hdf5/src/H5Pmapl.c\00", align 1
@__func__.H5P__macc_reg_prop = private unnamed_addr constant [19 x i8] c"H5P__macc_reg_prop\00", align 1
@H5E_PLIST_g = external global i64, align 8
@H5E_CANTINSERT_g = external global i64, align 8
@.str.3 = private unnamed_addr constant [33 x i8] c"can't insert property into class\00", align 1
@.str.4 = private unnamed_addr constant [15 x i8] c"key_alloc_size\00", align 1

; Function Attrs: nounwind uwtable
define internal i32 @H5P__macc_reg_prop(ptr noundef %0) #0 {
  %2 = alloca ptr, align 8
  %3 = alloca i64, align 8
  %4 = alloca i64, align 8
  %5 = alloca i32, align 4
  %6 = alloca i8, align 1
  store ptr %0, ptr %2, align 8, !tbaa !3
  call void @llvm.lifetime.start.p0(i64 8, ptr %3) #4
  store i64 16384, ptr %3, align 8, !tbaa !8
  call void @llvm.lifetime.start.p0(i64 8, ptr %4) #4
  store i64 1048576, ptr %4, align 8, !tbaa !8
  call void @llvm.lifetime.start.p0(i64 4, ptr %5) #4
  store i32 0, ptr %5, align 4, !tbaa !10
  call void @llvm.lifetime.start.p0(i64 1, ptr %6) #4
  store i8 0, ptr %6, align 1, !tbaa !12
  %7 = load i8, ptr @H5P_init_g, align 1, !tbaa !12, !range !14, !noundef !15
  %8 = trunc i8 %7 to i1
  br i1 %8, label %13, label %9

9:                                                ; preds = %1
  %10 = load i8, ptr @H5_libterm_g, align 1, !tbaa !12, !range !14, !noundef !15
  %11 = trunc i8 %10 to i1
  %12 = xor i1 %11, true
  br label %13

13:                                               ; preds = %9, %1
  %14 = phi i1 [ true, %1 ], [ %12, %9 ]
  %15 = xor i1 %14, true
  %16 = xor i1 %15, true
  %17 = zext i1 %16 to i32
  %18 = sext i32 %17 to i64
  %19 = call i64 @llvm.expect.i64(i64 %18, i64 1)
  %20 = icmp ne i64 %19, 0
  br i1 %20, label %21, label %69

21:                                               ; preds = %13
  %22 = load ptr, ptr %2, align 8, !tbaa !3
  %23 = call i32 @H5P__register_real(ptr noundef %22, ptr noundef @.str.1, i64 noundef 8, ptr noundef %3, ptr noundef null, ptr noundef null, ptr noundef null, ptr noundef @H5P__encode_size_t, ptr noundef @H5P__decode_size_t, ptr noundef null, ptr noundef null, ptr noundef null, ptr noundef null)
  %24 = icmp slt i32 %23, 0
  br i1 %24, label %25, label %44

25:                                               ; preds = %21
  br label %26

26:                                               ; preds = %25
  br label %27

27:                                               ; preds = %26
  br label %28

28:                                               ; preds = %27
  %29 = load i64, ptr @H5E_PLIST_g, align 8, !tbaa !8
  %30 = load i64, ptr @H5E_CANTINSERT_g, align 8, !tbaa !8
  %31 = call i32 (ptr, ptr, i32, i64, i64, ptr, ...) @H5E_printf_stack(ptr noundef @.str.2, ptr noundef @__func__.H5P__macc_reg_prop, i32 noundef 119, i64 noundef %29, i64 noundef %30, ptr noundef @.str.3)
  br label %32

32:                                               ; preds = %28
  br label %33

33:                                               ; preds = %32
  store i8 1, ptr %6, align 1, !tbaa !12
  %34 = load i8, ptr %6, align 1, !tbaa !12, !range !14, !noundef !15
  %35 = trunc i8 %34 to i1
  %36 = zext i1 %35 to i8
  store i8 %36, ptr %6, align 1, !tbaa !12
  br label %37

37:                                               ; preds = %33
  br label %38

38:                                               ; preds = %37
  br label %39

39:                                               ; preds = %38
  store i32 -1, ptr %5, align 4, !tbaa !10
  br label %68

40:                                               ; No predecessors!
  br label %41

41:                                               ; preds = %40
  br label %42

42:                                               ; preds = %41
  br label %43

43:                                               ; preds = %42
  br label %44

44:                                               ; preds = %43, %21
  %45 = load ptr, ptr %2, align 8, !tbaa !3
  %46 = call i32 @H5P__register_real(ptr noundef %45, ptr noundef @.str.4, i64 noundef 8, ptr noundef %4, ptr noundef null, ptr noundef null, ptr noundef null, ptr noundef @H5P__encode_size_t, ptr noundef @H5P__decode_size_t, ptr noundef null, ptr noundef null, ptr noundef null, ptr noundef null)
  %47 = icmp slt i32 %46, 0
  br i1 %47, label %48, label %67

48:                                               ; preds = %44
  br label %49

49:                                               ; preds = %48
  br label %50

50:                                               ; preds = %49
  br label %51

51:                                               ; preds = %50
  %52 = load i64, ptr @H5E_PLIST_g, align 8, !tbaa !8
  %53 = load i64, ptr @H5E_CANTINSERT_g, align 8, !tbaa !8
  %54 = call i32 (ptr, ptr, i32, i64, i64, ptr, ...) @H5E_printf_stack(ptr noundef @.str.2, ptr noundef @__func__.H5P__macc_reg_prop, i32 noundef 125, i64 noundef %52, i64 noundef %53, ptr noundef @.str.3)
  br label %55

55:                                               ; preds = %51
  br label %56

56:                                               ; preds = %55
  store i8 1, ptr %6, align 1, !tbaa !12
  %57 = load i8, ptr %6, align 1, !tbaa !12, !range !14, !noundef !15
  %58 = trunc i8 %57 to i1
  %59 = zext i1 %58 to i8
  store i8 %59, ptr %6, align 1, !tbaa !12
  br label %60

60:                                               ; preds = %56
  br label %61

61:                                               ; preds = %60
  br label %62

62:                                               ; preds = %61
  store i32 -1, ptr %5, align 4, !tbaa !10
  br label %68

63:                                               ; No predecessors!
  br label %64

64:                                               ; preds = %63
  br label %65

65:                                               ; preds = %64
  br label %66

66:                                               ; preds = %65
  br label %67

67:                                               ; preds = %66, %44
  br label %68

68:                                               ; preds = %67, %62, %39
  br label %69

69:                                               ; preds = %68, %13
  %70 = load i32, ptr %5, align 4, !tbaa !10
  call void @llvm.lifetime.end.p0(i64 1, ptr %6) #4
  call void @llvm.lifetime.end.p0(i64 4, ptr %5) #4
  call void @llvm.lifetime.end.p0(i64 8, ptr %4) #4
  call void @llvm.lifetime.end.p0(i64 8, ptr %3) #4
  ret i32 %70
}

; Function Attrs: nocallback nofree nosync nounwind willreturn memory(argmem: readwrite)
declare void @llvm.lifetime.start.p0(i64 immarg, ptr captures(none)) #1

; Function Attrs: nocallback nofree nosync nounwind willreturn memory(none)
declare i64 @llvm.expect.i64(i64, i64) #2

declare i32 @H5P__register_real(ptr noundef, ptr noundef, i64 noundef, ptr noundef, ptr noundef, ptr noundef, ptr noundef, ptr noundef, ptr noundef, ptr noundef, ptr noundef, ptr noundef, ptr noundef) #3

declare i32 @H5P__encode_size_t(ptr noundef, ptr noundef, ptr noundef) #3

declare i32 @H5P__decode_size_t(ptr noundef, ptr noundef) #3

declare i32 @H5E_printf_stack(ptr noundef, ptr noundef, i32 noundef, i64 noundef, i64 noundef, ptr noundef, ...) #3

; Function Attrs: nocallback nofree nosync nounwind willreturn memory(argmem: readwrite)
declare void @llvm.lifetime.end.p0(i64 immarg, ptr captures(none)) #1


!llvm.module.flags = !{!0, !1, !2}

!0 = !{i32 1, !"wchar_size", i32 4}
!1 = !{i32 8, !"PIC Level", i32 2}
!2 = !{i32 7, !"uwtable", i32 2}
!3 = !{!4, !4, i64 0}
!4 = !{!"p1 _ZTS14H5P_genclass_t", !5, i64 0}
!5 = !{!"any pointer", !6, i64 0}
!6 = !{!"omnipotent char", !7, i64 0}
!7 = !{!"Simple C/C++ TBAA"}
!8 = !{!9, !9, i64 0}
!9 = !{!"long", !6, i64 0}
!10 = !{!11, !11, i64 0}
!11 = !{!"int", !6, i64 0}
!12 = !{!13, !13, i64 0}
!13 = !{!"_Bool", !6, i64 0}
!14 = !{i8 0, i8 2}
!15 = !{}
